target datalayout = "e-m:e-p270:32:32-p271:32:32-p272:64:64-i64:64-i128:128-f80:128-n8:16:32:64-S128"
target triple = "x86_64-unknown-linux-gnu"

%"class.icu_75::DecimalFormatSymbols" = type <{ %"class.icu_75::UObject", [29 x %"class.icu_75::UnicodeString"], %"class.icu_75::UnicodeString", i32, [4 x i8], %"class.icu_75::Locale", [157 x i8], [157 x i8], [6 x i8], ptr, [3 x %"class.icu_75::UnicodeString"], [3 x %"class.icu_75::UnicodeString"], i8, i8, [9 x i8], [5 x i8] }>
%"class.icu_75::UObject" = type { ptr }
%"class.icu_75::UnicodeString" = type { %"class.icu_75::Replaceable", %"union.icu_75::UnicodeString::StackBufferOrFields" }
%"class.icu_75::Replaceable" = type { %"class.icu_75::UObject" }
%"union.icu_75::UnicodeString::StackBufferOrFields" = type { %struct.anon.0, [32 x i8] }
%struct.anon.0 = type { i16, i32, i32, ptr }
%"class.icu_75::Locale" = type <{ %"class.icu_75::UObject", [12 x i8], [6 x i8], [4 x i8], [2 x i8], i32, [4 x i8], ptr, [157 x i8], [3 x i8], ptr, i8, [7 x i8] }>
%struct.anon = type { i16, [27 x i16] }

@_ZTVN6icu_7520DecimalFormatSymbolsE = unnamed_addr constant { [5 x ptr] } { [5 x ptr] [ptr null, ptr @_ZTIN6icu_7520DecimalFormatSymbolsE, ptr @_ZN6icu_7520DecimalFormatSymbolsD1Ev, ptr @_ZN6icu_7520DecimalFormatSymbolsD0Ev, ptr @_ZNK6icu_7520DecimalFormatSymbols17getDynamicClassIDEv] }, align 8
@_ZTVN6icu_757UObjectE = external unnamed_addr constant { [5 x ptr] }, align 8
@_ZTVN6icu_7513UnicodeStringE = external unnamed_addr constant { [13 x ptr] }, align 8
@_ZTVN6icu_7511ReplaceableE = external unnamed_addr constant { [13 x ptr] }, align 8

; Function Attrs: mustprogress nounwind uwtable
define linkonce_odr void @_ZN6icu_7511ReplaceableC2Ev(ptr noundef nonnull align 8 dereferenceable(8) %this) unnamed_addr #0 comdat align 2 {
entry:
  %this.addr = alloca ptr, align 8
  store ptr %this, ptr %this.addr, align 8
  %this1 = load ptr, ptr %this.addr, align 8
  call void @_ZN6icu_757UObjectC2Ev(ptr noundef nonnull align 8 dereferenceable(8) %this1) #9
  store ptr getelementptr inbounds ({ [13 x ptr] }, ptr @_ZTVN6icu_7511ReplaceableE, i32 0, i32 0, i32 2), ptr %this1, align 8
  ret void
}

; Function Attrs: mustprogress uwtable
define linkonce_odr void @_ZN6icu_7513UnicodeStringC2Ev(ptr noundef nonnull align 8 dereferenceable(64) %this) unnamed_addr #1 comdat align 2 {
entry:
  %this.addr = alloca ptr, align 8
  store ptr %this, ptr %this.addr, align 8
  %this1 = load ptr, ptr %this.addr, align 8
  call void @_ZN6icu_7511ReplaceableC2Ev(ptr noundef nonnull align 8 dereferenceable(8) %this1)
  store ptr getelementptr inbounds ({ [13 x ptr] }, ptr @_ZTVN6icu_7513UnicodeStringE, i32 0, i32 0, i32 2), ptr %this1, align 8
  %fUnion2 = getelementptr inbounds %"class.icu_75::UnicodeString", ptr %this1, i32 0, i32 1
  %fLengthAndFlags = getelementptr inbounds %struct.anon, ptr %fUnion2, i32 0, i32 0
  store i16 2, ptr %fLengthAndFlags, align 8
  ret void
}

; Function Attrs: mustprogress nounwind uwtable
define linkonce_odr void @_ZN6icu_757UObjectC2Ev(ptr noundef nonnull align 8 dereferenceable(8) %this) unnamed_addr #0 comdat align 2 {
entry:
  %this.addr = alloca ptr, align 8
  store ptr %this, ptr %this.addr, align 8
  %this1 = load ptr, ptr %this.addr, align 8
  store ptr getelementptr inbounds ({ [5 x ptr] }, ptr @_ZTVN6icu_757UObjectE, i32 0, i32 0, i32 2), ptr %this1, align 8
  ret void
}

; Function Attrs: mustprogress uwtable
define void @_ZN6icu_7520DecimalFormatSymbolsC2ERKNS_6LocaleERKNS_15NumberingSystemER10UErrorCode(ptr noundef nonnull align 8 dereferenceable(2883) %this, ptr noundef nonnull align 8 dereferenceable(217) %loc, ptr noundef nonnull align 8 dereferenceable(86) %ns, ptr noundef nonnull align 4 dereferenceable(4) %status) unnamed_addr #1 align 2 personality ptr @__gxx_personality_v0 {
entry:
  %this.addr = alloca ptr, align 8
  %loc.addr = alloca ptr, align 8
  %ns.addr = alloca ptr, align 8
  %status.addr = alloca ptr, align 8
  %exn.slot = alloca ptr, align 8
  %ehselector.slot = alloca i32, align 4
  store ptr %this, ptr %this.addr, align 8
  store ptr %loc, ptr %loc.addr, align 8
  store ptr %ns, ptr %ns.addr, align 8
  store ptr %status, ptr %status.addr, align 8
  %this1 = load ptr, ptr %this.addr, align 8
  %0 = getelementptr inbounds i8, ptr %this1, i64 0
  call void @llvm.memset.p0.i64(ptr align 8 %0, i8 0, i64 8, i1 false)
  call void @_ZN6icu_757UObjectC2Ev(ptr noundef nonnull align 8 dereferenceable(8) %this1) #9
  store ptr getelementptr inbounds ({ [5 x ptr] }, ptr @_ZTVN6icu_7520DecimalFormatSymbolsE, i32 0, i32 0, i32 2), ptr %this1, align 8
  %fSymbols = getelementptr inbounds %"class.icu_75::DecimalFormatSymbols", ptr %this1, i32 0, i32 1
  %array.begin = getelementptr inbounds [29 x %"class.icu_75::UnicodeString"], ptr %fSymbols, i32 0, i32 0
  %arrayctor.end = getelementptr inbounds %"class.icu_75::UnicodeString", ptr %array.begin, i64 29
  br label %arrayctor.loop

arrayctor.loop:                                   ; preds = %invoke.cont, %entry
  %arrayctor.cur = phi ptr [ %array.begin, %entry ], [ %arrayctor.next, %invoke.cont ]
  invoke void @_ZN6icu_7513UnicodeStringC2Ev(ptr noundef nonnull align 8 dereferenceable(64) %arrayctor.cur)
          to label %invoke.cont unwind label %lpad

invoke.cont:                                      ; preds = %arrayctor.loop
  %arrayctor.next = getelementptr inbounds %"class.icu_75::UnicodeString", ptr %arrayctor.cur, i64 1
  %arrayctor.done = icmp eq ptr %arrayctor.next, %arrayctor.end
  br i1 %arrayctor.done, label %arrayctor.cont, label %arrayctor.loop

arrayctor.cont:                                   ; preds = %invoke.cont
  %fNoSymbol = getelementptr inbounds %"class.icu_75::DecimalFormatSymbols", ptr %this1, i32 0, i32 2
  invoke void @_ZN6icu_7513UnicodeStringC2Ev(ptr noundef nonnull align 8 dereferenceable(64) %fNoSymbol)
          to label %invoke.cont4 unwind label %lpad3

invoke.cont4:                                     ; preds = %arrayctor.cont
  %locale = getelementptr inbounds %"class.icu_75::DecimalFormatSymbols", ptr %this1, i32 0, i32 5
  %1 = load ptr, ptr %loc.addr, align 8
  invoke void @_ZN6icu_756LocaleC1ERKS0_(ptr noundef nonnull align 8 dereferenceable(217) %locale, ptr noundef nonnull align 8 dereferenceable(217) %1)
          to label %invoke.cont6 unwind label %lpad5

invoke.cont6:                                     ; preds = %invoke.cont4
  %currPattern = getelementptr inbounds %"class.icu_75::DecimalFormatSymbols", ptr %this1, i32 0, i32 9
  store ptr null, ptr %currPattern, align 8
  %currencySpcBeforeSym = getelementptr inbounds %"class.icu_75::DecimalFormatSymbols", ptr %this1, i32 0, i32 10
  %array.begin7 = getelementptr inbounds [3 x %"class.icu_75::UnicodeString"], ptr %currencySpcBeforeSym, i32 0, i32 0
  %arrayctor.end8 = getelementptr inbounds %"class.icu_75::UnicodeString", ptr %array.begin7, i64 3
  br label %arrayctor.loop9

arrayctor.loop9:                                  ; preds = %invoke.cont12, %invoke.cont6
  %arrayctor.cur10 = phi ptr [ %array.begin7, %invoke.cont6 ], [ %arrayctor.next19, %invoke.cont12 ]
  invoke void @_ZN6icu_7513UnicodeStringC2Ev(ptr noundef nonnull align 8 dereferenceable(64) %arrayctor.cur10)
          to label %invoke.cont12 unwind label %lpad11

invoke.cont12:                                    ; preds = %arrayctor.loop9
  %arrayctor.next19 = getelementptr inbounds %"class.icu_75::UnicodeString", ptr %arrayctor.cur10, i64 1
  %arrayctor.done20 = icmp eq ptr %arrayctor.next19, %arrayctor.end8
  br i1 %arrayctor.done20, label %arrayctor.cont21, label %arrayctor.loop9

arrayctor.cont21:                                 ; preds = %invoke.cont12
  %currencySpcAfterSym = getelementptr inbounds %"class.icu_75::DecimalFormatSymbols", ptr %this1, i32 0, i32 11
  %array.begin22 = getelementptr inbounds [3 x %"class.icu_75::UnicodeString"], ptr %currencySpcAfterSym, i32 0, i32 0
  %arrayctor.end23 = getelementptr inbounds %"class.icu_75::UnicodeString", ptr %array.begin22, i64 3
  br label %arrayctor.loop24

arrayctor.loop24:                                 ; preds = %invoke.cont27, %arrayctor.cont21
  %arrayctor.cur25 = phi ptr [ %array.begin22, %arrayctor.cont21 ], [ %arrayctor.next34, %invoke.cont27 ]
  invoke void @_ZN6icu_7513UnicodeStringC2Ev(ptr noundef nonnull align 8 dereferenceable(64) %arrayctor.cur25)
          to label %invoke.cont27 unwind label %lpad26

invoke.cont27:                                    ; preds = %arrayctor.loop24
  %arrayctor.next34 = getelementptr inbounds %"class.icu_75::UnicodeString", ptr %arrayctor.cur25, i64 1
  %arrayctor.done35 = icmp eq ptr %arrayctor.next34, %arrayctor.end23
  br i1 %arrayctor.done35, label %arrayctor.cont36, label %arrayctor.loop24

arrayctor.cont36:                                 ; preds = %invoke.cont27
  %nsName = getelementptr inbounds %"class.icu_75::DecimalFormatSymbols", ptr %this1, i32 0, i32 14
  %arrayinit.begin = getelementptr inbounds [9 x i8], ptr %nsName, i64 0, i64 0
  %arrayinit.end = getelementptr inbounds i8, ptr %arrayinit.begin, i64 9
  br label %arrayinit.body

arrayinit.body:                                   ; preds = %arrayinit.body, %arrayctor.cont36
  %arrayinit.cur = phi ptr [ %arrayinit.begin, %arrayctor.cont36 ], [ %arrayinit.next, %arrayinit.body ]
  store i8 0, ptr %arrayinit.cur, align 1
  %arrayinit.next = getelementptr inbounds i8, ptr %arrayinit.cur, i64 1
  %arrayinit.done = icmp eq ptr %arrayinit.next, %arrayinit.end
  br i1 %arrayinit.done, label %arrayinit.end37, label %arrayinit.body

arrayinit.end37:                                  ; preds = %arrayinit.body
  %locale38 = getelementptr inbounds %"class.icu_75::DecimalFormatSymbols", ptr %this1, i32 0, i32 5
  %2 = load ptr, ptr %status.addr, align 8
  %3 = load ptr, ptr %ns.addr, align 8
  invoke void @_ZN6icu_7520DecimalFormatSymbols10initializeERKNS_6LocaleER10UErrorCodeaPKNS_15NumberingSystemE(ptr noundef nonnull align 8 dereferenceable(2883) %this1, ptr noundef nonnull align 8 dereferenceable(217) %locale38, ptr noundef nonnull align 4 dereferenceable(4) %2, i8 noundef signext 0, ptr noundef %3)
          to label %invoke.cont40 unwind label %lpad39

invoke.cont40:                                    ; preds = %arrayinit.end37
  ret void

lpad:                                             ; preds = %arrayctor.loop
  %4 = landingpad { ptr, i32 }
          cleanup
  %5 = extractvalue { ptr, i32 } %4, 0
  store ptr %5, ptr %exn.slot, align 8
  %6 = extractvalue { ptr, i32 } %4, 1
  store i32 %6, ptr %ehselector.slot, align 4
  %arraydestroy.isempty = icmp eq ptr %array.begin, %arrayctor.cur
  br i1 %arraydestroy.isempty, label %arraydestroy.done2, label %arraydestroy.body

arraydestroy.body:                                ; preds = %arraydestroy.body, %lpad
  %arraydestroy.elementPast = phi ptr [ %arrayctor.cur, %lpad ], [ %arraydestroy.element, %arraydestroy.body ]
  %arraydestroy.element = getelementptr inbounds %"class.icu_75::UnicodeString", ptr %arraydestroy.elementPast, i64 -1
  call void @_ZN6icu_7513UnicodeStringD1Ev(ptr noundef nonnull align 8 dereferenceable(64) %arraydestroy.element) #9
  %arraydestroy.done = icmp eq ptr %arraydestroy.element, %array.begin
  br i1 %arraydestroy.done, label %arraydestroy.done2, label %arraydestroy.body

arraydestroy.done2:                               ; preds = %arraydestroy.body, %lpad
  br label %ehcleanup62

lpad3:                                            ; preds = %arrayctor.cont
  %7 = landingpad { ptr, i32 }
          cleanup
  %8 = extractvalue { ptr, i32 } %7, 0
  store ptr %8, ptr %exn.slot, align 8
  %9 = extractvalue { ptr, i32 } %7, 1
  store i32 %9, ptr %ehselector.slot, align 4
  br label %ehcleanup55

lpad5:                                            ; preds = %invoke.cont4
  %10 = landingpad { ptr, i32 }
          cleanup
  %11 = extractvalue { ptr, i32 } %10, 0
  store ptr %11, ptr %exn.slot, align 8
  %12 = extractvalue { ptr, i32 } %10, 1
  store i32 %12, ptr %ehselector.slot, align 4
  br label %ehcleanup54

lpad11:                                           ; preds = %arrayctor.loop9
  %13 = landingpad { ptr, i32 }
          cleanup
  %14 = extractvalue { ptr, i32 } %13, 0
  store ptr %14, ptr %exn.slot, align 8
  %15 = extractvalue { ptr, i32 } %13, 1
  store i32 %15, ptr %ehselector.slot, align 4
  %arraydestroy.isempty13 = icmp eq ptr %array.begin7, %arrayctor.cur10
  br i1 %arraydestroy.isempty13, label %arraydestroy.done18, label %arraydestroy.body14

arraydestroy.body14:                              ; preds = %arraydestroy.body14, %lpad11
  %arraydestroy.elementPast15 = phi ptr [ %arrayctor.cur10, %lpad11 ], [ %arraydestroy.element16, %arraydestroy.body14 ]
  %arraydestroy.element16 = getelementptr inbounds %"class.icu_75::UnicodeString", ptr %arraydestroy.elementPast15, i64 -1
  call void @_ZN6icu_7513UnicodeStringD1Ev(ptr noundef nonnull align 8 dereferenceable(64) %arraydestroy.element16) #9
  %arraydestroy.done17 = icmp eq ptr %arraydestroy.element16, %array.begin7
  br i1 %arraydestroy.done17, label %arraydestroy.done18, label %arraydestroy.body14

arraydestroy.done18:                              ; preds = %arraydestroy.body14, %lpad11
  br label %ehcleanup53

lpad26:                                           ; preds = %arrayctor.loop24
  %16 = landingpad { ptr, i32 }
          cleanup
  %17 = extractvalue { ptr, i32 } %16, 0
  store ptr %17, ptr %exn.slot, align 8
  %18 = extractvalue { ptr, i32 } %16, 1
  store i32 %18, ptr %ehselector.slot, align 4
  %arraydestroy.isempty28 = icmp eq ptr %array.begin22, %arrayctor.cur25
  br i1 %arraydestroy.isempty28, label %arraydestroy.done33, label %arraydestroy.body29

arraydestroy.body29:                              ; preds = %arraydestroy.body29, %lpad26
  %arraydestroy.elementPast30 = phi ptr [ %arrayctor.cur25, %lpad26 ], [ %arraydestroy.element31, %arraydestroy.body29 ]
  %arraydestroy.element31 = getelementptr inbounds %"class.icu_75::UnicodeString", ptr %arraydestroy.elementPast30, i64 -1
  call void @_ZN6icu_7513UnicodeStringD1Ev(ptr noundef nonnull align 8 dereferenceable(64) %arraydestroy.element31) #9
  %arraydestroy.done32 = icmp eq ptr %arraydestroy.element31, %array.begin22
  br i1 %arraydestroy.done32, label %arraydestroy.done33, label %arraydestroy.body29

arraydestroy.done33:                              ; preds = %arraydestroy.body29, %lpad26
  br label %ehcleanup

lpad39:                                           ; preds = %arrayinit.end37
  %19 = landingpad { ptr, i32 }
          cleanup
  %20 = extractvalue { ptr, i32 } %19, 0
  store ptr %20, ptr %exn.slot, align 8
  %21 = extractvalue { ptr, i32 } %19, 1
  store i32 %21, ptr %ehselector.slot, align 4
  %array.begin41 = getelementptr inbounds [3 x %"class.icu_75::UnicodeString"], ptr %currencySpcAfterSym, i32 0, i32 0
  %22 = getelementptr inbounds %"class.icu_75::UnicodeString", ptr %array.begin41, i64 3
  br label %arraydestroy.body42

arraydestroy.body42:                              ; preds = %arraydestroy.body42, %lpad39
  %arraydestroy.elementPast43 = phi ptr [ %22, %lpad39 ], [ %arraydestroy.element44, %arraydestroy.body42 ]
  %arraydestroy.element44 = getelementptr inbounds %"class.icu_75::UnicodeString", ptr %arraydestroy.elementPast43, i64 -1
  call void @_ZN6icu_7513UnicodeStringD1Ev(ptr noundef nonnull align 8 dereferenceable(64) %arraydestroy.element44) #9
  %arraydestroy.done45 = icmp eq ptr %arraydestroy.element44, %array.begin41
  br i1 %arraydestroy.done45, label %arraydestroy.done46, label %arraydestroy.body42

arraydestroy.done46:                              ; preds = %arraydestroy.body42
  br label %ehcleanup

ehcleanup:                                        ; preds = %arraydestroy.done46, %arraydestroy.done33
  %array.begin47 = getelementptr inbounds [3 x %"class.icu_75::UnicodeString"], ptr %currencySpcBeforeSym, i32 0, i32 0
  %23 = getelementptr inbounds %"class.icu_75::UnicodeString", ptr %array.begin47, i64 3
  br label %arraydestroy.body48

arraydestroy.body48:                              ; preds = %arraydestroy.body48, %ehcleanup
  %arraydestroy.elementPast49 = phi ptr [ %23, %ehcleanup ], [ %arraydestroy.element50, %arraydestroy.body48 ]
  %arraydestroy.element50 = getelementptr inbounds %"class.icu_75::UnicodeString", ptr %arraydestroy.elementPast49, i64 -1
  call void @_ZN6icu_7513UnicodeStringD1Ev(ptr noundef nonnull align 8 dereferenceable(64) %arraydestroy.element50) #9
  %arraydestroy.done51 = icmp eq ptr %arraydestroy.element50, %array.begin47
  br i1 %arraydestroy.done51, label %arraydestroy.done52, label %arraydestroy.body48

arraydestroy.done52:                              ; preds = %arraydestroy.body48
  br label %ehcleanup53

ehcleanup53:                                      ; preds = %arraydestroy.done52, %arraydestroy.done18
  call void @_ZN6icu_756LocaleD1Ev(ptr noundef nonnull align 8 dereferenceable(217) %locale) #9
  br label %ehcleanup54

ehcleanup54:                                      ; preds = %ehcleanup53, %lpad5
  call void @_ZN6icu_7513UnicodeStringD1Ev(ptr noundef nonnull align 8 dereferenceable(64) %fNoSymbol) #9
  br label %ehcleanup55

ehcleanup55:                                      ; preds = %ehcleanup54, %lpad3
  %array.begin56 = getelementptr inbounds [29 x %"class.icu_75::UnicodeString"], ptr %fSymbols, i32 0, i32 0
  %24 = getelementptr inbounds %"class.icu_75::UnicodeString", ptr %array.begin56, i64 29
  br label %arraydestroy.body57

arraydestroy.body57:                              ; preds = %arraydestroy.body57, %ehcleanup55
  %arraydestroy.elementPast58 = phi ptr [ %24, %ehcleanup55 ], [ %arraydestroy.element59, %arraydestroy.body57 ]
  %arraydestroy.element59 = getelementptr inbounds %"class.icu_75::UnicodeString", ptr %arraydestroy.elementPast58, i64 -1
  call void @_ZN6icu_7513UnicodeStringD1Ev(ptr noundef nonnull align 8 dereferenceable(64) %arraydestroy.element59) #9
  %arraydestroy.done60 = icmp eq ptr %arraydestroy.element59, %array.begin56
  br i1 %arraydestroy.done60, label %arraydestroy.done61, label %arraydestroy.body57

arraydestroy.done61:                              ; preds = %arraydestroy.body57
  br label %ehcleanup62

ehcleanup62:                                      ; preds = %arraydestroy.done61, %arraydestroy.done2
  call void @_ZN6icu_757UObjectD2Ev(ptr noundef nonnull align 8 dereferenceable(8) %this1) #9
  br label %eh.resume

eh.resume:                                        ; preds = %ehcleanup62
  %exn = load ptr, ptr %exn.slot, align 8
  %sel = load i32, ptr %ehselector.slot, align 4
  %lpad.val = insertvalue { ptr, i32 } poison, ptr %exn, 0
  %lpad.val63 = insertvalue { ptr, i32 } %lpad.val, i32 %sel, 1
  resume { ptr, i32 } %lpad.val63
}